target datalayout = "e-m:e-p270:32:32-p271:32:32-p272:64:64-i64:64-i128:128-f80:128-n8:16:32:64-S128"
target triple = "x86_64-pc-linux-gnu"

@mle_key_hash_handlers = internal global ptr null, align 8
@.str.232 = private unnamed_addr constant [24 x i8] c"Mesh Link Establishment\00", align 1
@.str.233 = private unnamed_addr constant [4 x i8] c"MLE\00", align 1
@.str.234 = private unnamed_addr constant [4 x i8] c"mle\00", align 1
@proto_mle = internal global i32 0, align 4
@mle_handle = internal global ptr null, align 8
@.str.235 = private unnamed_addr constant [16 x i8] c"meshlink_mic_ok\00", align 1
@.str.236 = private unnamed_addr constant [22 x i8] c"Dissect only good MIC\00", align 1
@.str.237 = private unnamed_addr constant [38 x i8] c"Dissect payload only if MIC is valid.\00", align 1
@mle_mic_ok = internal global i8 0, align 1

; Function Attrs: null_pointer_is_valid sspstrong uwtable
define hidden void @proto_register_mle() #0 {
  %1 = alloca ptr, align 8
  %2 = alloca ptr, align 8
  call void @llvm.lifetime.start.p0(i64 8, ptr %1) #11
  call void @llvm.lifetime.start.p0(i64 8, ptr %2) #11
  %3 = call i32 @proto_register_protocol(ptr noundef @.str.232, ptr noundef @.str.233, ptr noundef @.str.234)
  store i32 %3, ptr @proto_mle, align 4
  %4 = load i32, ptr @proto_mle, align 4
  call void @proto_register_field_array(i32 noundef %4, ptr noundef @proto_register_mle.hf, i32 noundef 96)
  call void @proto_register_subtree_array(ptr noundef @proto_register_mle.ett, i32 noundef 10)
  %5 = load i32, ptr @proto_mle, align 4
  %6 = call ptr @expert_register_protocol(i32 noundef %5)
  store ptr %6, ptr %2, align 8
  %7 = load ptr, ptr %2, align 8
  call void @expert_register_field_array(ptr noundef %7, ptr noundef @proto_register_mle.ei, i32 noundef 7)
  %8 = load i32, ptr @proto_mle, align 4
  %9 = call ptr @register_dissector(ptr noundef @.str.234, ptr noundef @dissect_mle, i32 noundef %8)
  store ptr %9, ptr @mle_handle, align 8
  %10 = load i32, ptr @proto_mle, align 4
  %11 = call ptr @prefs_register_protocol(i32 noundef %10, ptr noundef null)
  store ptr %11, ptr %1, align 8
  %12 = load ptr, ptr %1, align 8
  call void @prefs_register_bool_preference(ptr noundef %12, ptr noundef @.str.235, ptr noundef @.str.236, ptr noundef @.str.237, ptr noundef @mle_mic_ok)
  %13 = call ptr @wmem_epan_scope()
  %14 = call noalias ptr @wmem_tree_new(ptr noundef %13)
  store ptr %14, ptr @mle_key_hash_handlers, align 8
  call void @llvm.lifetime.end.p0(i64 8, ptr %2) #11
  call void @llvm.lifetime.end.p0(i64 8, ptr %1) #11
  ret void
}