; Function Attrs: null_pointer_is_valid sspstrong uwtable
define hidden void @proto_register_mle() local_unnamed_addr #0 {
  %1 = tail call i32 @proto_register_protocol(ptr noundef nonnull @.str.232, ptr noundef nonnull @.str.233, ptr noundef nonnull @.str.234)
  store i32 %1, ptr @proto_mle, align 4
  tail call void @proto_register_field_array(i32 noundef %1, ptr noundef nonnull @proto_register_mle.hf, i32 noundef 96)
  tail call void @proto_register_subtree_array(ptr noundef nonnull @proto_register_mle.ett, i32 noundef 10)
  %2 = load i32, ptr @proto_mle, align 4
  %3 = tail call ptr @expert_register_protocol(i32 noundef %2)
  tail call void @expert_register_field_array(ptr noundef %3, ptr noundef nonnull @proto_register_mle.ei, i32 noundef 7)
  %4 = load i32, ptr @proto_mle, align 4
  %5 = tail call ptr @register_dissector(ptr noundef nonnull @.str.234, ptr noundef nonnull @dissect_mle, i32 noundef %4)
  store ptr %5, ptr @mle_handle, align 8
  %6 = load i32, ptr @proto_mle, align 4
  %7 = tail call ptr @prefs_register_protocol(i32 noundef %6, ptr noundef null)
  tail call void @prefs_register_bool_preference(ptr noundef %7, ptr noundef nonnull @.str.235, ptr noundef nonnull @.str.236, ptr noundef nonnull @.str.237, ptr noundef nonnull @mle_mic_ok)
  %8 = tail call ptr @wmem_epan_scope()
  %9 = tail call noalias ptr @wmem_tree_new(ptr noundef %8)
  store ptr %9, ptr @mle_key_hash_handlers, align 8
  ret void
}